; Function Attrs: mustprogress nounwind uwtable
define internal noundef zeroext i1 @_ZN4llvm20MCAsmParserExtension15HandleDirectiveIN12_GLOBAL__N_114COFFMasmParserETnMT_FbNS_9StringRefENS_5SMLocEEXadL_ZNS3_24ParseDirectiveIncludelibES5_S6_EEEEbPS0_S5_S6_(ptr nocapture noundef readonly %0, ptr nocapture readnone %1, i64 %2, ptr nocapture readnone %3) #0 align 2 {
  %5 = alloca %"struct.std::pair.167", align 8
  %6 = alloca %"class.llvm::StringRef", align 8
  %7 = alloca %"class.llvm::Twine", align 8
  call void @llvm.lifetime.start.p0(i64 16, ptr nonnull %6)
  call void @llvm.lifetime.start.p0(i64 40, ptr nonnull %7)
  call void @llvm.memset.p0.i64(ptr noundef nonnull align 8 dereferenceable(16) %6, i8 0, i64 16, i1 false)
  %8 = getelementptr inbounds nuw i8, ptr %0, i64 8
  %9 = load ptr, ptr %8, align 8
  %10 = load ptr, ptr %9, align 8
  %11 = getelementptr inbounds i8, ptr %10, i64 192
  %12 = load ptr, ptr %11, align 8
  %13 = call noundef zeroext i1 %12(ptr noundef nonnull align 8 dereferenceable(34) %9, ptr noundef nonnull align 8 dereferenceable(16) %6) #16
  br i1 %13, label %14, label %19

14:                                               ; preds = %4
  %15 = getelementptr inbounds nuw i8, ptr %7, i64 32
  %16 = getelementptr inbounds nuw i8, ptr %7, i64 33
  store i8 1, ptr %16, align 1
  store ptr @.str.46, ptr %7, align 8
  store i8 3, ptr %15, align 8
  %17 = load ptr, ptr %8, align 8
  %18 = call noundef zeroext i1 @_ZN4llvm11MCAsmParser8TokErrorERKNS_5TwineENS_7SMRangeE(ptr noundef nonnull align 8 dereferenceable(34) %17, ptr noundef nonnull align 8 dereferenceable(34) %7, ptr null, ptr null) #16
  br label %_ZN12_GLOBAL__N_114COFFMasmParser24ParseDirectiveIncludelibEN4llvm9StringRefENS1_5SMLocE.exit

19:                                               ; preds = %4
  %20 = load ptr, ptr %8, align 8
  %21 = load ptr, ptr %20, align 8
  %22 = getelementptr inbounds i8, ptr %21, i64 56
  %23 = load ptr, ptr %22, align 8
  %24 = call noundef nonnull align 8 dereferenceable(288) ptr %23(ptr noundef nonnull align 8 dereferenceable(34) %20) #16
  call void @llvm.lifetime.start.p0(i64 32, ptr nonnull %5)
  %25 = getelementptr inbounds nuw i8, ptr %24, i64 120
  %26 = call noundef zeroext i1 @_ZNK4llvm15SmallVectorBaseIjE5emptyEv(ptr noundef nonnull align 8 dereferenceable(16) %25) #16
  br i1 %26, label %_ZNK4llvm10MCStreamer17getCurrentSectionEv.exit.i.i, label %27

27:                                               ; preds = %19
  %28 = load ptr, ptr %25, align 8
  %29 = call noundef i64 @_ZNK4llvm15SmallVectorBaseIjE4sizeEv(ptr noundef nonnull align 8 dereferenceable(16) %25) #16
  %30 = getelementptr inbounds %"struct.std::pair.167", ptr %28, i64 %29
  %31 = getelementptr inbounds i8, ptr %30, i64 -32
  %.sroa.0.0.copyload.i.i.i = load ptr, ptr %31, align 8
  %.sroa.3.0..sroa_idx.i.i.i = getelementptr inbounds i8, ptr %30, i64 -24
  %.sroa.3.0.copyload.i.i.i = load i32, ptr %.sroa.3.0..sroa_idx.i.i.i, align 8
  br label %_ZNK4llvm10MCStreamer17getCurrentSectionEv.exit.i.i

_ZNK4llvm10MCStreamer17getCurrentSectionEv.exit.i.i: ; preds = %27, %19
  %.sroa.3.0.i.i.i = phi i32 [ %.sroa.3.0.copyload.i.i.i, %27 ], [ 0, %19 ]
  %.sroa.0.0.i.i.i = phi ptr [ %.sroa.0.0.copyload.i.i.i, %27 ], [ null, %19 ]
  %32 = call noundef zeroext i1 @_ZNK4llvm15SmallVectorBaseIjE5emptyEv(ptr noundef nonnull align 8 dereferenceable(16) %25) #16
  br i1 %32, label %_ZN4llvm10MCStreamer11pushSectionEv.exit.i, label %33

33:                                               ; preds = %_ZNK4llvm10MCStreamer17getCurrentSectionEv.exit.i.i
  %34 = load ptr, ptr %25, align 8
  %35 = call noundef i64 @_ZNK4llvm15SmallVectorBaseIjE4sizeEv(ptr noundef nonnull align 8 dereferenceable(16) %25) #16
  %36 = getelementptr inbounds %"struct.std::pair.167", ptr %34, i64 %35
  %37 = getelementptr inbounds i8, ptr %36, i64 -16
  %.sroa.0.0.copyload.i5.i.i = load ptr, ptr %37, align 8
  %.sroa.3.0..sroa_idx.i6.i.i = getelementptr inbounds i8, ptr %36, i64 -8
  %.sroa.3.0.copyload.i7.i.i = load i32, ptr %.sroa.3.0..sroa_idx.i6.i.i, align 8
  br label %_ZN4llvm10MCStreamer11pushSectionEv.exit.i

_ZN4llvm10MCStreamer11pushSectionEv.exit.i:       ; preds = %33, %_ZNK4llvm10MCStreamer17getCurrentSectionEv.exit.i.i
  %.sroa.3.0.i8.i.i = phi i32 [ %.sroa.3.0.copyload.i7.i.i, %33 ], [ 0, %_ZNK4llvm10MCStreamer17getCurrentSectionEv.exit.i.i ]
  %.sroa.0.0.i9.i.i = phi ptr [ %.sroa.0.0.copyload.i5.i.i, %33 ], [ null, %_ZNK4llvm10MCStreamer17getCurrentSectionEv.exit.i.i ]
  store ptr %.sroa.0.0.i.i.i, ptr %5, align 8
  %.sroa.214.0..sroa_idx.i.i = getelementptr inbounds i8, ptr %5, i64 8
  store i32 %.sroa.3.0.i.i.i, ptr %.sroa.214.0..sroa_idx.i.i, align 8
  %38 = getelementptr inbounds nuw i8, ptr %5, i64 16
  store ptr %.sroa.0.0.i9.i.i, ptr %38, align 8
  %.sroa.2.0..sroa_idx12.i.i = getelementptr inbounds i8, ptr %5, i64 24
  store i32 %.sroa.3.0.i8.i.i, ptr %.sroa.2.0..sroa_idx12.i.i, align 8
  call void @_ZN4llvm23SmallVectorTemplateBaseISt4pairIS1_IPNS_9MCSectionEjES4_ELb1EE9push_backERKS5_(ptr noundef nonnull align 8 dereferenceable(16) %25, ptr noundef nonnull align 8 dereferenceable(32) %5)
  call void @llvm.lifetime.end.p0(i64 32, ptr nonnull %5)
  %39 = load ptr, ptr %8, align 8
  %40 = load ptr, ptr %39, align 8
  %41 = getelementptr inbounds i8, ptr %40, i64 56
  %42 = load ptr, ptr %41, align 8
  %43 = call noundef nonnull align 8 dereferenceable(288) ptr %42(ptr noundef nonnull align 8 dereferenceable(34) %39) #16
  %44 = load ptr, ptr %8, align 8
  %45 = load ptr, ptr %44, align 8
  %46 = getelementptr inbounds i8, ptr %45, i64 48
  %47 = load ptr, ptr %46, align 8
  %48 = call noundef nonnull align 8 dereferenceable(2432) ptr %47(ptr noundef nonnull align 8 dereferenceable(34) %44) #16
  %49 = call noundef ptr @_ZN4llvm9MCContext14getCOFFSectionENS_9StringRefEjS1_ij(ptr noundef nonnull align 8 dereferenceable(2432) %48, ptr nonnull @.str.47, i64 8, i32 noundef 655360, ptr nonnull @.str.48, i64 0, i32 noundef 0, i32 noundef -1) #16
  %50 = load ptr, ptr %43, align 8
  %51 = getelementptr inbounds i8, ptr %50, i64 168
  %52 = load ptr, ptr %51, align 8
  call void %52(ptr noundef nonnull align 8 dereferenceable(288) %43, ptr noundef %49, i32 noundef 0) #16
  %53 = load ptr, ptr %8, align 8
  %54 = load ptr, ptr %53, align 8
  %55 = getelementptr inbounds i8, ptr %54, i64 56
  %56 = load ptr, ptr %55, align 8
  %57 = call noundef nonnull align 8 dereferenceable(288) ptr %56(ptr noundef nonnull align 8 dereferenceable(34) %53) #16
  %58 = load ptr, ptr %57, align 8
  %59 = getelementptr inbounds i8, ptr %58, i64 496
  %60 = load ptr, ptr %59, align 8
  call void %60(ptr noundef nonnull align 8 dereferenceable(288) %57, ptr nonnull @.str.49, i64 12) #16
  %61 = load ptr, ptr %8, align 8
  %62 = load ptr, ptr %61, align 8
  %63 = getelementptr inbounds i8, ptr %62, i64 56
  %64 = load ptr, ptr %63, align 8
  %65 = call noundef nonnull align 8 dereferenceable(288) ptr %64(ptr noundef nonnull align 8 dereferenceable(34) %61) #16
  %.sroa.0.0.copyload.i = load ptr, ptr %6, align 8
  %.sroa.2.0..sroa_idx.i = getelementptr inbounds i8, ptr %6, i64 8
  %.sroa.2.0.copyload.i = load i64, ptr %.sroa.2.0..sroa_idx.i, align 8
  %66 = load ptr, ptr %65, align 8
  %67 = getelementptr inbounds i8, ptr %66, i64 496
  %68 = load ptr, ptr %67, align 8
  call void %68(ptr noundef nonnull align 8 dereferenceable(288) %65, ptr %.sroa.0.0.copyload.i, i64 %.sroa.2.0.copyload.i) #16
  %69 = load ptr, ptr %8, align 8
  %70 = load ptr, ptr %69, align 8
  %71 = getelementptr inbounds i8, ptr %70, i64 56
  %72 = load ptr, ptr %71, align 8
  %73 = call noundef nonnull align 8 dereferenceable(288) ptr %72(ptr noundef nonnull align 8 dereferenceable(34) %69) #16
  %74 = load ptr, ptr %73, align 8
  %75 = getelementptr inbounds i8, ptr %74, i64 496
  %76 = load ptr, ptr %75, align 8
  call void %76(ptr noundef nonnull align 8 dereferenceable(288) %73, ptr nonnull @.str.50, i64 1) #16
  %77 = load ptr, ptr %8, align 8
  %78 = load ptr, ptr %77, align 8
  %79 = getelementptr inbounds i8, ptr %78, i64 56
  %80 = load ptr, ptr %79, align 8
  %81 = call noundef nonnull align 8 dereferenceable(288) ptr %80(ptr noundef nonnull align 8 dereferenceable(34) %77) #16
  %82 = call noundef zeroext i1 @_ZN4llvm10MCStreamer10popSectionEv(ptr noundef nonnull align 8 dereferenceable(288) %81) #16
  br label %_ZN12_GLOBAL__N_114COFFMasmParser24ParseDirectiveIncludelibEN4llvm9StringRefENS1_5SMLocE.exit

_ZN12_GLOBAL__N_114COFFMasmParser24ParseDirectiveIncludelibEN4llvm9StringRefENS1_5SMLocE.exit: ; preds = %14, %_ZN4llvm10MCStreamer11pushSectionEv.exit.i
  %.0.i = phi i1 [ %18, %14 ], [ false, %_ZN4llvm10MCStreamer11pushSectionEv.exit.i ]
  call void @llvm.lifetime.end.p0(i64 16, ptr nonnull %6)
  call void @llvm.lifetime.end.p0(i64 40, ptr nonnull %7)
  ret i1 %.0.i
}